###############################################################################
#
# IAR ELF Linker V9.60.3.422/W64 for ARM                  22/Jul/2025  21:24:42
# Copyright 2007-2024 IAR Systems AB.
#
#    Output file  =
#        D:\Study_resources\电赛\main\main\TSP3519\TSP3519\iar\Debug\Exe\empty_mspm0g3519_nortos_iar.out
#    Map file     =
#        D:\Study_resources\电赛\main\main\TSP3519\TSP3519\iar\Debug\List\empty_mspm0g3519_nortos_iar.map
#    Command line =
#        -f
#        D:\Study_resources\电赛\main\main\TSP3519\TSP3519\iar\Debug\Exe\empty_mspm0g3519_nortos_iar.out.rsp
#        (D:\Study_resources\电赛\main\main\TSP3519\TSP3519\iar\Debug\Obj\empty_mspm0g3519_13168490636323535303.dir\empty_mspm0g3519.o
#        D:\Study_resources\电赛\main\main\TSP3519\TSP3519\iar\Debug\Obj\iar_102420246905159791.dir\startup_mspm0g351x_iar.o
#        "D:\Study_resources\电赛\main\main\TSP3519\TSP3519\iar\Debug\Obj\SysConfig
#        Generated Files_5435349133262493662.dir\ti_msp_dl_config.o"
#        D:\Study_resources\电赛\main\main\TSP3519\TSP3519\iar\Debug\Obj\TSP3519_9401757970942732151.dir\tsp_gpio.o
#        D:\Study_resources\电赛\main\main\TSP3519\TSP3519\iar\Debug\Obj\TSP3519_9401757970942732151.dir\tsp_i2c.o
#        D:\Study_resources\电赛\main\main\TSP3519\TSP3519\iar\Debug\Obj\NUEDU2025_11847588325976546582.dir\tsp_isr.o
#        D:\Study_resources\电赛\main\main\TSP3519\TSP3519\iar\Debug\Obj\TSP3519_9401757970942732151.dir\TSP_MPU6050.o
#        D:\Study_resources\电赛\main\main\TSP3519\TSP3519\iar\Debug\Obj\TSP3519_9401757970942732151.dir\TSP_TFT18.o
#        --redirect _Printf=_PrintfFullNoMb --redirect _Scanf=_ScanfFullNoMb
#        --no_out_extension -o
#        D:\Study_resources\电赛\main\main\TSP3519\TSP3519\iar\Debug\Exe\empty_mspm0g3519_nortos_iar.out
#        --map
#        D:\Study_resources\电赛\main\main\TSP3519\TSP3519\iar\Debug\List\empty_mspm0g3519_nortos_iar.map
#        --config
#        D:\Study_resources\电赛\main\main\TSP3519\TSP3519\iar/mspm0g3519.icf
#        D:\ti\mspm0_sdk_2_05_01_00/source/ti/driverlib/lib/iar/m0p/mspm0gx51x/driverlib.a
#        --silent --semihosting --entry __iar_program_start --vfe --text_out
#        locale --cpu=Cortex-M0+ --fpu=None) --dependencies=n
#        D:\Study_resources\电赛\main\main\TSP3519\TSP3519\iar\Debug\Exe\empty_mspm0g3519_nortos_iar.out.iar_deps
#
###############################################################################

*******************************************************************************
*** RUNTIME MODEL ATTRIBUTES
***

CppFlavor       = *
__CPP_Runtime   = 1
__SystemLibrary = DLib
__dlib_version  = 6


*******************************************************************************
*** HEAP SELECTION
***

The basic heap was selected because no calls to memory allocation
functions were found in the application outside of system library
functions, there are calls to deallocation functions in the
application, and the application appears to be primarily
optimized for speed.


*******************************************************************************
*** PLACEMENT SUMMARY
***

"A0":  place at address 0x0 { ro section .intvec };
define block ALIGNED_ROM with end alignment = 8 { ro };
"P1":  place in [from 0x0 to 0x7'ffff] { block ALIGNED_ROM };
define block CSTACK with size = 512, alignment = 8 { };
define block PROC_STACK with size = 0, alignment = 8 { };
define block TRIM_TABLE with alignment = 8 { rw code section .TrimTable };
define block HEAP with size = 1K, alignment = 8 { };
"P2":  place in [from 0x2020'0000 to 0x2020'ffff] {
          rw, block CSTACK, block PROC_STACK, block TRIM_TABLE, block HEAP };
initialize by copy { rw };

No sections matched the following patterns:

  rw code section .TrimTable  in block TRIM_TABLE
  section BCRCONFIG           in "P3"
  section BSLCONFIG           in "P4"
  section DataBank            in "P5"


  Section              Kind         Address  Alignment    Size  Object
  -------              ----         -------  ---------    ----  ------
"A0":                                                     0xc0
  .intvec              const            0x0          4    0xc0  startup_mspm0g351x_iar.o [5]
                                     - 0xc0               0xc0

"P1":                                                   0x3e00
  ALIGNED_ROM                          0xc0             0x3e00  <Block>
    .rodata            const           0xc0          4    0x28  ti_msp_dl_config.o [2]
    .rodata            const           0xe8          4    0x36  ti_msp_dl_config.o [2]
    .rodata            const          0x11e          2     0x2  xlocale_c.o [6]
    .rodata            const          0x120          4   0x5f0  TSP_TFT18.o [3]
    .rodata            const          0x710          4    0x6a  xprintffull_nomb.o [6]
    .text              ro code        0x77a          2     0x2  startup_mspm0g351x_iar.o [5]
    .text              ro code        0x77c          4   0x24c  empty_mspm0g3519.o [4]
    .text              ro code        0x9c8          2   0x120  FltAddSub.o [8]
    .text              ro code        0xae8          4    0x28  FltCmpGe.o [8]
    .text              ro code        0xb10          4    0x26  FltCmpLe.o [8]
    .text              ro code        0xb36          2     0xa  xsprout.o [6]
    .text              ro code        0xb40          4    0x40  ti_msp_dl_config.o [2]
    .text              ro code        0xb80          4   0x44c  TSP_TFT18.o [3]
    .text              ro code        0xfcc          4   0x224  TSP_MPU6050.o [3]
    .text              ro code       0x11f0          4    0xb4  tsp_isr.o [1]
    .text              ro code       0x12a4          4    0x3a  FltToS32.o [8]
    .rodata            const         0x12de                0x1  xlocale_c.o [6]
    .text              ro code       0x12e0          4    0x36  IxxToFlt.o [8]
    .text              ro code       0x1316          2    0xa4  FltDiv.o [8]
    .text              ro code       0x13ba          2    0xb0  FltMul.o [8]
    .text              ro code       0x146c          4    0x32  FltToDbl.o [8]
    .text              ro code       0x14a0          4    0x40  sprintf.o [6]
    .text              ro code       0x14e0          4    0x94  ti_msp_dl_config.o [2]
    .text              ro code       0x1574          4   0x228  ti_msp_dl_config.o [2]
    .text              ro code       0x179c          4    0x4c  ti_msp_dl_config.o [2]
    .text              ro code       0x17e8          4    0x88  ti_msp_dl_config.o [2]
    .text              ro code       0x1870          4    0xd0  ti_msp_dl_config.o [2]
    .text              ro code       0x1940          4    0x50  ti_msp_dl_config.o [2]
    .text              ro code       0x1990          4    0x44  ti_msp_dl_config.o [2]
    .text              ro code       0x19d4          4    0x3c  ti_msp_dl_config.o [2]
    .text              ro code       0x1a10          4    0x10  ti_msp_dl_config.o [2]
    .text              ro code       0x1a20          4    0x84  dl_spi.o [7]
    .text              ro code       0x1aa4          2    0xe0  I32DivModFast.o [9]
    .text              ro code       0x1b84          4   0x364  tsp_i2c.o [3]
    .text              ro code       0x1ee8          4   0xf86  xprintffull_nomb.o [6]
    .text              ro code       0x2e70          4   0x374  ti_msp_dl_config.o [2]
    .text              ro code       0x31e4          4     0xa  dl_common.o [7]
    .text              ro code       0x31f0          4   0x184  dl_sysctl_mspm0gx51x.o [7]
    .text              ro code       0x3374          4   0x17c  dl_timer.o [7]
    .text              ro code       0x34f0          4    0xc8  dl_i2c.o [7]
    .text              ro code       0x35b8          4    0x60  dl_uart.o [7]
    .text              ro code       0x3618          4     0x2  IntDivZer.o [9]
    .text              ro code       0x361c          4    0x12  strchr.o [9]
    .text              ro code       0x3630          4    0x48  xfail_s.o [6]
    .text              ro code       0x3678          4     0xe  strlen.o [9]
    .text              ro code       0x3688          4    0x16  memchr.o [9]
    .text              ro code       0x36a0          4    0x4e  ABImemcpy.o [9]
    .text              ro code       0x36ee          2    0x2a  frexp.o [8]
    .text              ro code       0x3718          2    0x32  DblCmpLe.o [8]
    .text              ro code       0x374a          2    0x32  DblCmpGe.o [8]
    .text              ro code       0x377c          2    0x70  ldexp.o [8]
    .text              ro code       0x37ec          4    0x52  DblToI32.o [8]
    .text              ro code       0x3840          4    0x34  IxxToDbl.o [8]
    .text              ro code       0x3874          2   0x1a8  DblAddSub.o [8]
    .text              ro code       0x3a1c          2    0xc2  DblDiv.o [8]
    .text              ro code       0x3ade          2   0x184  DblMul.o [8]
    .text              ro code       0x3c64          4     0xc  xlocale_c.o [6]
    .text              ro code       0x3c70          2    0x7c  I64DivMod.o [9]
    .text              ro code       0x3cec          4    0x58  dl_factoryregion.o [7]
    .text              ro code       0x3d44          2     0xa  abort.o [6]
    .text              ro code       0x3d50          4     0x2  I64DivZer.o [9]
    .text              ro code       0x3d54          4    0x14  exit.o [10]
    .text              ro code       0x3d68          4    0x1c  cstartup_M.o [9]
    .text              ro code       0x3d84          4    0x1e  cmain.o [9]
    .text              ro code       0x3da2          2     0x4  low_level_init.o [6]
    .text              ro code       0x3da8          4    0x28  data_init.o [9]
    .text              ro code       0x3dd0          2     0x8  exit.o [6]
    .text              ro code       0x3dd8          4     0xa  cexit.o [9]
    Initializer bytes  const         0x3de4          4    0x44  <for P2-1>
    .text              ro code       0x3e28          2     0x8  startup_mspm0g351x_iar.o [5]
    .text              ro code       0x3e30          2    0x3c  zero_init3.o [9]
    .text              ro code       0x3e6c          2    0x30  copy_init3.o [9]
    .iar.init_table    const         0x3e9c          4    0x24  - Linker created -
    .rodata            const         0x3ec0                0x0  zero_init3.o [9]
    .rodata            const         0x3ec0                0x0  copy_init3.o [9]
                                   - 0x3ec0             0x3e00

"P2", part 1 of 3:                                        0x44
  P2-1                          0x2020'0000          4    0x44  <Init block>
    .data              inited   0x2020'0000          4     0x8  empty_mspm0g3519.o [4]
    .data              inited   0x2020'0008          4     0x4  dl_factoryregion.o [7]
    .data              inited   0x2020'000c          4    0x38  xlocale_c.o [6]
                              - 0x2020'0044               0x44

"P2", part 2 of 3:                                       0x1e4
  .bss                 zero     0x2020'0044          4   0x184  ti_msp_dl_config.o [2]
  .TrimTable           zero     0x2020'01c8          4    0x44  dl_factoryregion.o [7]
  .bss                 zero     0x2020'020c          4     0xc  TSP_MPU6050.o [3]
  .bss                 zero     0x2020'0218          4     0x8  tsp_isr.o [1]
  .bss                 zero     0x2020'0220          4     0x4  TSP_MPU6050.o [3]
  .bss                 zero     0x2020'0224          4     0x4  xfail_s.o [6]
                              - 0x2020'0228              0x1e4

"P2", part 3 of 3:                                       0x200
  CSTACK                        0x2020'0228          8   0x200  <Block>
    CSTACK             uninit   0x2020'0228              0x200  <Block tail>
                              - 0x2020'0428              0x200

Unused ranges:

         From           To      Size
         ----           --      ----
       0x3ec0     0x7'ffff  0x7'c140
  0x2020'0428  0x2020'ffff    0xfbd8


*******************************************************************************
*** INIT TABLE
***

          Address      Size
          -------      ----
Zero (__iar_zero_init3)
    1 destination range, total size 0x1e4:
          0x2020'0044  0x1e4

Copy (__iar_copy_init3)
    1 source range, total size 0x44:
               0x3de4   0x44
    1 destination range, total size 0x44:
          0x2020'0000   0x44



*******************************************************************************
*** MODULE SUMMARY
***

    Module                    ro code  ro data  rw data
    ------                    -------  -------  -------
command line/config:
    ---------------------------------------------------
    Total:

D:\Study_resources\电赛\main\main\TSP3519\TSP3519\iar\Debug\Obj\NUEDU2025_11847588325976546582.dir: [1]
    tsp_isr.o                     180                 8
    ---------------------------------------------------
    Total:                        180                 8

D:\Study_resources\电赛\main\main\TSP3519\TSP3519\iar\Debug\Obj\SysConfig Generated Files_5435349133262493662.dir: [2]
    ti_msp_dl_config.o          2'292       94      388
    ---------------------------------------------------
    Total:                      2'292       94      388

D:\Study_resources\电赛\main\main\TSP3519\TSP3519\iar\Debug\Obj\TSP3519_9401757970942732151.dir: [3]
    TSP_MPU6050.o                 548                16
    TSP_TFT18.o                 1'100    1'520
    tsp_i2c.o                     868
    ---------------------------------------------------
    Total:                      2'516    1'520       16

D:\Study_resources\电赛\main\main\TSP3519\TSP3519\iar\Debug\Obj\empty_mspm0g3519_13168490636323535303.dir: [4]
    empty_mspm0g3519.o            588        8        8
    ---------------------------------------------------
    Total:                        588        8        8

D:\Study_resources\电赛\main\main\TSP3519\TSP3519\iar\Debug\Obj\iar_102420246905159791.dir: [5]
    startup_mspm0g351x_iar.o       10      192
    ---------------------------------------------------
    Total:                         10      192

dl6M_tlf.a: [6]
    abort.o                        10
    exit.o                          8
    low_level_init.o                4
    sprintf.o                      64
    xfail_s.o                      72                 4
    xlocale_c.o                    12       59       56
    xprintffull_nomb.o          3'974      106
    xsprout.o                      10
    ---------------------------------------------------
    Total:                      4'154      165       60

driverlib.a: [7]
    dl_common.o                    10
    dl_factoryregion.o             88        4       72
    dl_i2c.o                      200
    dl_spi.o                      132
    dl_sysctl_mspm0gx51x.o        388
    dl_timer.o                    380
    dl_uart.o                      96
    ---------------------------------------------------
    Total:                      1'294        4       72

m6M_tl.a: [8]
    DblAddSub.o                   424
    DblCmpGe.o                     50
    DblCmpLe.o                     50
    DblDiv.o                      194
    DblMul.o                      388
    DblToI32.o                     82
    FltAddSub.o                   288
    FltCmpGe.o                     40
    FltCmpLe.o                     38
    FltDiv.o                      164
    FltMul.o                      176
    FltToDbl.o                     50
    FltToS32.o                     58
    IxxToDbl.o                     52
    IxxToFlt.o                     54
    frexp.o                        42
    ldexp.o                       112
    ---------------------------------------------------
    Total:                      2'262

rt6M_tl.a: [9]
    ABImemcpy.o                    78
    I32DivModFast.o               224
    I64DivMod.o                   124
    I64DivZer.o                     2
    IntDivZer.o                     2
    cexit.o                        10
    cmain.o                        30
    copy_init3.o                   48
    cstartup_M.o                   28
    data_init.o                    40
    memchr.o                       22
    strchr.o                       18
    strlen.o                       14
    zero_init3.o                   60
    ---------------------------------------------------
    Total:                        700

shb_l.a: [10]
    exit.o                         20
    ---------------------------------------------------
    Total:                         20

    Gaps                           27
    Linker created                          38      512
-------------------------------------------------------
    Grand Total:               14'043    2'021    1'064


*******************************************************************************
*** ENTRY LIST
***

Entry                       Address   Size  Type      Object
-----                       -------   ----  ----      ------
.iar.init_table$$Base        0x3e9c          --   Gb  - Linker created -
.iar.init_table$$Limit       0x3ec0          --   Gb  - Linker created -
?main                        0x3d85         Code  Gb  cmain.o [9]
ADC0_IRQHandler               0x77b    0x2  Code  Wk  startup_mspm0g351x_iar.o [5]
ADC1_IRQHandler               0x77b    0x2  Code  Wk  startup_mspm0g351x_iar.o [5]
AESADV_IRQHandler             0x77b    0x2  Code  Wk  startup_mspm0g351x_iar.o [5]
ALIGNED_ROM$$Base              0xc0          --   Gb  - Linker created -
ALIGNED_ROM$$Limit           0x3ec0          --   Gb  - Linker created -
CANFD0_IRQHandler             0x77b    0x2  Code  Wk  startup_mspm0g351x_iar.o [5]
CANFD1_IRQHandler             0x77b    0x2  Code  Wk  startup_mspm0g351x_iar.o [5]
CSTACK$$Base            0x2020'0228          --   Gb  - Linker created -
CSTACK$$Limit           0x2020'0428          --   Gb  - Linker created -
DAC0_IRQHandler               0x77b    0x2  Code  Wk  startup_mspm0g351x_iar.o [5]
DL_Common_delayCycles        0x31e5    0xa  Code  Gb  dl_common.o [7]
DL_Common_updateReg          0x2ef5    0xc  Code  Lc  ti_msp_dl_config.o [2]
DL_Common_updateReg          0x1b85    0xc  Code  Lc  tsp_i2c.o [3]
DL_FACTORYREGION_TrimTable
                        0x2020'01c8   0x44  Data  Gb  dl_factoryregion.o [7]
DL_FactoryRegion_initTrimTable
                             0x3ced   0x58  Code  Gb  dl_factoryregion.o [7]
DL_GPIO_clearInterruptStatus
                             0x2ff7    0xc  Code  Lc  ti_msp_dl_config.o [2]
DL_GPIO_clearInterruptStatus
                             0x11f1    0xc  Code  Lc  tsp_isr.o [1]
DL_GPIO_clearPins             0x78f    0x8  Code  Lc  empty_mspm0g3519.o [4]
DL_GPIO_clearPins            0x2fbf    0x8  Code  Lc  ti_msp_dl_config.o [2]
DL_GPIO_clearPins            0x1be7    0x8  Code  Lc  tsp_i2c.o [3]
DL_GPIO_clearPins             0xb87    0x8  Code  Lc  TSP_TFT18.o [3]
DL_GPIO_enableHiZ            0x2fd9   0x12  Code  Lc  ti_msp_dl_config.o [2]
DL_GPIO_enableHiZ            0x1bf5   0x12  Code  Lc  tsp_i2c.o [3]
DL_GPIO_enableInterrupt
                             0x2feb    0xc  Code  Lc  ti_msp_dl_config.o [2]
DL_GPIO_enableOutput         0x2fc7    0x6  Code  Lc  ti_msp_dl_config.o [2]
DL_GPIO_enableOutput         0x1bef    0x6  Code  Lc  tsp_i2c.o [3]
DL_GPIO_enablePower          0x2f41    0xa  Code  Lc  ti_msp_dl_config.o [2]
DL_GPIO_initDigitalInputFeatures
                             0x2f5f   0x1a  Code  Lc  ti_msp_dl_config.o [2]
DL_GPIO_initDigitalInputFeatures
                             0x1b9d   0x1a  Code  Lc  tsp_i2c.o [3]
DL_GPIO_initDigitalOutput
                             0x2f53    0xc  Code  Lc  ti_msp_dl_config.o [2]
DL_GPIO_initDigitalOutput
                             0x1b91    0xc  Code  Lc  tsp_i2c.o [3]
DL_GPIO_initPeripheralAnalogFunction
                             0x2fb3    0xc  Code  Lc  ti_msp_dl_config.o [2]
DL_GPIO_initPeripheralInputFunction
                             0x2f87    0xe  Code  Lc  ti_msp_dl_config.o [2]
DL_GPIO_initPeripheralInputFunctionFeatures
                             0x2f95   0x1e  Code  Lc  ti_msp_dl_config.o [2]
DL_GPIO_initPeripheralInputFunctionFeatures
                             0x1bb7   0x1e  Code  Lc  tsp_i2c.o [3]
DL_GPIO_initPeripheralOutputFunction
                             0x2f79    0xe  Code  Lc  ti_msp_dl_config.o [2]
DL_GPIO_readPins              0x77d    0xc  Code  Lc  empty_mspm0g3519.o [4]
DL_GPIO_readPins             0x1bd5    0xc  Code  Lc  tsp_i2c.o [3]
DL_GPIO_reset                0x2f4b    0x8  Code  Lc  ti_msp_dl_config.o [2]
DL_GPIO_setLowerPinsPolarity
                             0x2fcd    0xc  Code  Lc  ti_msp_dl_config.o [2]
DL_GPIO_setPins               0x789    0x6  Code  Lc  empty_mspm0g3519.o [4]
DL_GPIO_setPins              0x1be1    0x6  Code  Lc  tsp_i2c.o [3]
DL_GPIO_setPins               0xb81    0x6  Code  Lc  TSP_TFT18.o [3]
DL_I2C_clearInterruptStatus
                             0x1c73    0x6  Code  Lc  tsp_i2c.o [3]
DL_I2C_enableAnalogGlitchFilter
                             0x302f   0x12  Code  Lc  ti_msp_dl_config.o [2]
DL_I2C_enableController
                             0x3047    0xe  Code  Lc  ti_msp_dl_config.o [2]
DL_I2C_enableControllerClockStretching
                             0x3055    0xe  Code  Lc  ti_msp_dl_config.o [2]
DL_I2C_enablePower           0x300b    0xa  Code  Lc  ti_msp_dl_config.o [2]
DL_I2C_enablePower           0x1c41    0xa  Code  Lc  tsp_i2c.o [3]
DL_I2C_fillControllerTXFIFO
                             0x351b   0x74  Code  Gb  dl_i2c.o [7]
DL_I2C_flushControllerTXFIFO
                             0x358f   0x26  Code  Gb  dl_i2c.o [7]
DL_I2C_getControllerStatus
                             0x1c53    0x6  Code  Lc  tsp_i2c.o [3]
DL_I2C_getRawInterruptStatus
                             0x1c69    0xa  Code  Lc  tsp_i2c.o [3]
DL_I2C_isControllerRXFIFOEmpty
                             0x1c07   0x10  Code  Lc  tsp_i2c.o [3]
DL_I2C_receiveControllerData
                             0x1c59    0x8  Code  Lc  tsp_i2c.o [3]
DL_I2C_reset                 0x3015    0x8  Code  Lc  ti_msp_dl_config.o [2]
DL_I2C_reset                 0x1c4b    0x8  Code  Lc  tsp_i2c.o [3]
DL_I2C_resetControllerTransfer
                             0x3003    0x8  Code  Lc  ti_msp_dl_config.o [2]
DL_I2C_setAnalogGlitchFilterPulseWidth
                             0x301d   0x12  Code  Lc  ti_msp_dl_config.o [2]
DL_I2C_setClockConfig        0x34f1   0x2a  Code  Gb  dl_i2c.o [7]
DL_I2C_setControllerRXFIFOThreshold
                             0x3071   0x10  Code  Lc  ti_msp_dl_config.o [2]
DL_I2C_setControllerTXFIFOThreshold
                             0x3063    0xe  Code  Lc  ti_msp_dl_config.o [2]
DL_I2C_setTimerPeriod        0x3041    0x6  Code  Lc  ti_msp_dl_config.o [2]
DL_I2C_startControllerTransfer
                             0x1c17   0x2a  Code  Lc  tsp_i2c.o [3]
DL_I2C_transmitControllerData
                             0x1c61    0x8  Code  Lc  tsp_i2c.o [3]
DL_Interrupt_getPendingGroup
                             0x11fd   0x12  Code  Lc  tsp_isr.o [1]
DL_SPI_enable                0x3093    0xe  Code  Lc  ti_msp_dl_config.o [2]
DL_SPI_enablePower           0x3081    0xa  Code  Lc  ti_msp_dl_config.o [2]
DL_SPI_init                  0x1a21   0x44  Code  Gb  dl_spi.o [7]
DL_SPI_receiveDataBlocking8
                             0x1a75   0x10  Code  Gb  dl_spi.o [7]
DL_SPI_reset                 0x308b    0x8  Code  Lc  ti_msp_dl_config.o [2]
DL_SPI_setBitRateSerialClockDivider
                             0x30b5    0xe  Code  Lc  ti_msp_dl_config.o [2]
DL_SPI_setClockConfig        0x1a65   0x10  Code  Gb  dl_spi.o [7]
DL_SPI_setFIFOThreshold
                             0x30a1   0x14  Code  Lc  ti_msp_dl_config.o [2]
DL_SPI_transmitDataBlocking8
                             0x1a85    0xe  Code  Gb  dl_spi.o [7]
DL_SYSCTL_configSYSPLL       0x31f1   0xc2  Code  Gb  dl_sysctl_mspm0gx51x.o [7]
DL_SYSCTL_enableMFCLK        0x2f23    0xe  Code  Lc  ti_msp_dl_config.o [2]
DL_SYSCTL_setBORThreshold
                             0x2f01    0x6  Code  Lc  ti_msp_dl_config.o [2]
DL_SYSCTL_setFlashWaitState
                             0x2f31   0x10  Code  Lc  ti_msp_dl_config.o [2]
DL_SYSCTL_setHFCLKSourceHFXTParams
                             0x32e1   0x68  Code  Gb  dl_sysctl_mspm0gx51x.o [7]
DL_SYSCTL_setSYSOSCFreq
                             0x2f07    0xe  Code  Lc  ti_msp_dl_config.o [2]
DL_SYSCTL_setULPCLKDivider
                             0x2f15    0xe  Code  Lc  ti_msp_dl_config.o [2]
DL_SYSCTL_switchMCLKfromSYSOSCtoHSCLK
                             0x32b3   0x24  Code  Gb  dl_sysctl_mspm0gx51x.o [7]
DL_Timer_enableClock         0x30dd    0x8  Code  Lc  ti_msp_dl_config.o [2]
DL_Timer_enablePower         0x30c3    0xa  Code  Lc  ti_msp_dl_config.o [2]
DL_Timer_initFourCCPWMMode
                             0x33d9   0xf6  Code  Gb  dl_timer.o [7]
DL_Timer_reset               0x30cd    0x8  Code  Lc  ti_msp_dl_config.o [2]
DL_Timer_setCCPDirection
                             0x30d5    0x8  Code  Lc  ti_msp_dl_config.o [2]
DL_Timer_setCaptCompUpdateMethod
                             0x339b   0x1a  Code  Gb  dl_timer.o [7]
DL_Timer_setCaptureCompareOutCtl
                             0x33b5   0x14  Code  Gb  dl_timer.o [7]
DL_Timer_setCaptureCompareValue
                             0x3391    0xa  Code  Gb  dl_timer.o [7]
DL_Timer_setClockConfig
                             0x3375   0x16  Code  Gb  dl_timer.o [7]
DL_Timer_setCounterControl
                             0x30e5   0x16  Code  Lc  ti_msp_dl_config.o [2]
DL_UART_enable               0x3111   0x10  Code  Lc  ti_msp_dl_config.o [2]
DL_UART_enableInterrupt
                             0x3169    0xc  Code  Lc  ti_msp_dl_config.o [2]
DL_UART_enablePower          0x30fb    0xa  Code  Lc  ti_msp_dl_config.o [2]
DL_UART_init                 0x35b9   0x48  Code  Gb  dl_uart.o [7]
DL_UART_reset                0x3105    0x8  Code  Lc  ti_msp_dl_config.o [2]
DL_UART_setBaudRateDivisor
                             0x3133   0x30  Code  Lc  ti_msp_dl_config.o [2]
DL_UART_setClockConfig       0x3601   0x10  Code  Gb  dl_uart.o [7]
DL_UART_setOversampling
                             0x3121   0x12  Code  Lc  ti_msp_dl_config.o [2]
DMA_IRQHandler                0x77b    0x2  Code  Wk  startup_mspm0g351x_iar.o [5]
Default_Handler               0x77b    0x2  Code  Lc  startup_mspm0g351x_iar.o [5]
FACTORYVALUE            0x2020'0008    0x4  Data  Gb  dl_factoryregion.o [7]
GROUP0_IRQHandler             0x77b    0x2  Code  Wk  startup_mspm0g351x_iar.o [5]
GROUP1_IRQHandler            0x125d   0x2c  Code  Gb  tsp_isr.o [1]
Gyro_Calibrate               0x10db   0x80  Code  Gb  TSP_MPU6050.o [3]
Gyro_GetAngularRate          0x115b   0x40  Code  Gb  TSP_MPU6050.o [3]
HardFault_Handler             0x77b    0x2  Code  Wk  startup_mspm0g351x_iar.o [5]
I2C0_IRQHandler               0x77b    0x2  Code  Wk  startup_mspm0g351x_iar.o [5]
I2C1_IRQHandler               0x77b    0x2  Code  Wk  startup_mspm0g351x_iar.o [5]
I2C2_IRQHandler               0x77b    0x2  Code  Wk  startup_mspm0g351x_iar.o [5]
LFSS_IRQHandler               0x77b    0x2  Code  Wk  startup_mspm0g351x_iar.o [5]
MPU6050ReadGyro              0x1079   0x62  Code  Gb  TSP_MPU6050.o [3]
MPU6050ReadID                 0xff9   0x38  Code  Gb  TSP_MPU6050.o [3]
MPU6050_Init                 0x1031   0x48  Code  Gb  TSP_MPU6050.o [3]
MPU6050_ReadReg               0xfdd   0x1a  Code  Gb  TSP_MPU6050.o [3]
MPU6050_WriteReg              0xfcd   0x10  Code  Gb  TSP_MPU6050.o [3]
NMI_Handler                   0x77b    0x2  Code  Wk  startup_mspm0g351x_iar.o [5]
PendSV_Handler                0x77b    0x2  Code  Wk  startup_mspm0g351x_iar.o [5]
Region$$Table$$Base          0x3e9c          --   Gb  - Linker created -
Region$$Table$$Limit         0x3ec0          --   Gb  - Linker created -
Reset_Handler                0x3e29    0x8  Code  Wk  startup_mspm0g351x_iar.o [5]
SPI0_IRQHandler               0x77b    0x2  Code  Wk  startup_mspm0g351x_iar.o [5]
SPI1_IRQHandler               0x77b    0x2  Code  Wk  startup_mspm0g351x_iar.o [5]
SPI2_IRQHandler               0x77b    0x2  Code  Wk  startup_mspm0g351x_iar.o [5]
SVC_Handler                   0x77b    0x2  Code  Wk  startup_mspm0g351x_iar.o [5]
SYSCFG_DL_GPIO_init          0x1575  0x228  Code  Wk  ti_msp_dl_config.o [2]
SYSCFG_DL_K230_init          0x1991   0x44  Code  Wk  ti_msp_dl_config.o [2]
SYSCFG_DL_LCD_init           0x19d5   0x3c  Code  Wk  ti_msp_dl_config.o [2]
SYSCFG_DL_MPU6050_init       0x1941   0x50  Code  Wk  ti_msp_dl_config.o [2]
SYSCFG_DL_Motor_init         0x1871   0xd0  Code  Wk  ti_msp_dl_config.o [2]
SYSCFG_DL_SYSCTL_init        0x179d   0x4c  Code  Wk  ti_msp_dl_config.o [2]
SYSCFG_DL_SYSTICK_init       0x1a11   0x10  Code  Wk  ti_msp_dl_config.o [2]
SYSCFG_DL_Servo_init         0x17e9   0x88  Code  Wk  ti_msp_dl_config.o [2]
SYSCFG_DL_init                0xb41   0x40  Code  Wk  ti_msp_dl_config.o [2]
SYSCFG_DL_initPower          0x14e1   0x94  Code  Wk  ti_msp_dl_config.o [2]
SysTick_Config               0x2ec7   0x2e  Code  Lc  ti_msp_dl_config.o [2]
SysTick_Handler              0x121b   0x2a  Code  Gb  tsp_isr.o [1]
TIMA0_IRQHandler              0x77b    0x2  Code  Wk  startup_mspm0g351x_iar.o [5]
TIMA1_IRQHandler              0x77b    0x2  Code  Wk  startup_mspm0g351x_iar.o [5]
TIMG0_IRQHandler              0x77b    0x2  Code  Wk  startup_mspm0g351x_iar.o [5]
TIMG12_IRQHandler             0x77b    0x2  Code  Wk  startup_mspm0g351x_iar.o [5]
TIMG14_IRQHandler             0x77b    0x2  Code  Wk  startup_mspm0g351x_iar.o [5]
TIMG6_IRQHandler              0x77b    0x2  Code  Wk  startup_mspm0g351x_iar.o [5]
TIMG7_IRQHandler              0x77b    0x2  Code  Wk  startup_mspm0g351x_iar.o [5]
TIMG8_IRQHandler              0x77b    0x2  Code  Wk  startup_mspm0g351x_iar.o [5]
TIMG9_IRQHandler              0x77b    0x2  Code  Wk  startup_mspm0g351x_iar.o [5]
UART0_IRQHandler              0x77b    0x2  Code  Wk  startup_mspm0g351x_iar.o [5]
UART1_IRQHandler              0x77b    0x2  Code  Wk  startup_mspm0g351x_iar.o [5]
UART3_IRQHandler              0x77b    0x2  Code  Wk  startup_mspm0g351x_iar.o [5]
UART4_IRQHandler              0x77b    0x2  Code  Wk  startup_mspm0g351x_iar.o [5]
UART5_IRQHandler              0x77b    0x2  Code  Wk  startup_mspm0g351x_iar.o [5]
UART6_IRQHandler              0x77b    0x2  Code  Wk  startup_mspm0g351x_iar.o [5]
UART7_IRQHandler              0x77b    0x2  Code  Wk  startup_mspm0g351x_iar.o [5]
_LC                          0x1ee9    0x8  Code  Lc  xprintffull_nomb.o [6]
_LitobFullNoMb               0x2cc9  0x124  Code  Lc  xprintffull_nomb.o [6]
_Locale_lconv           0x2020'000c   0x38  Data  Lc  xlocale_c.o [6]
_PrintfFullNoMb              0x1ef1  0xdd8  Code  Gb  xprintffull_nomb.o [6]
_PutcharsFullNoMb            0x2e39   0x36  Code  Lc  xprintffull_nomb.o [6]
_SProut                       0xb37    0xa  Code  Gb  xsprout.o [6]
__NVIC_EnableIRQ             0x2e71   0x12  Code  Lc  ti_msp_dl_config.o [2]
__NVIC_SetPriority           0x2e83   0x44  Code  Lc  ti_msp_dl_config.o [2]
__aeabi_cdcmple              0x3719         Code  Gb  DblCmpLe.o [8]
__aeabi_cdrcmple             0x374b         Code  Gb  DblCmpGe.o [8]
__aeabi_cfcmple               0xb11         Code  Gb  FltCmpLe.o [8]
__aeabi_cfrcmple              0xae9         Code  Gb  FltCmpGe.o [8]
__aeabi_d2iz                 0x37ed         Code  Gb  DblToI32.o [8]
__aeabi_d2uiz                0x3811         Code  Gb  DblToI32.o [8]
__aeabi_ddiv                 0x3a1d         Code  Gb  DblDiv.o [8]
__aeabi_dmul                 0x3adf         Code  Gb  DblMul.o [8]
__aeabi_dsub                 0x392f         Code  Gb  DblAddSub.o [8]
__aeabi_f2d                  0x146d         Code  Gb  FltToDbl.o [8]
__aeabi_f2iz                 0x12a5         Code  Gb  FltToS32.o [8]
__aeabi_fadd                  0x9c9         Code  Gb  FltAddSub.o [8]
__aeabi_fdiv                 0x1317         Code  Gb  FltDiv.o [8]
__aeabi_fmul                 0x13bb         Code  Gb  FltMul.o [8]
__aeabi_fsub                  0xa39         Code  Gb  FltAddSub.o [8]
__aeabi_i2d                  0x3861         Code  Gb  IxxToDbl.o [8]
__aeabi_i2f                  0x1301         Code  Gb  IxxToFlt.o [8]
__aeabi_idiv                 0x1ad1         Code  Gb  I32DivModFast.o [9]
__aeabi_idiv0                0x3619         Code  Gb  IntDivZer.o [9]
__aeabi_idivmod              0x1ad1         Code  Gb  I32DivModFast.o [9]
__aeabi_ldiv0                0x3d51         Code  Gb  I64DivZer.o [9]
__aeabi_memcpy               0x36d5         Code  Gb  ABImemcpy.o [9]
__aeabi_memcpy4              0x36a1         Code  Gb  ABImemcpy.o [9]
__aeabi_memcpy8              0x36a1         Code  Gb  ABImemcpy.o [9]
__aeabi_ui2d                 0x3841         Code  Gb  IxxToDbl.o [8]
__aeabi_ui2f                 0x12e1         Code  Gb  IxxToFlt.o [8]
__aeabi_uidiv                0x1ad7         Code  Gb  I32DivModFast.o [9]
__aeabi_uidivmod             0x1ad7         Code  Gb  I32DivModFast.o [9]
__aeabi_uldivmod             0x3c71         Code  Gb  I64DivMod.o [9]
__cmain                      0x3d85         Code  Gb  cmain.o [9]
__exit                       0x3d55   0x14  Code  Gb  exit.o [10]
__iar_Fail_s                 0x3631   0x22  Code  Gb  xfail_s.o [6]
__iar_Memchr                 0x3689         Code  Gb  memchr.o [9]
__iar_Memcpy                 0x36e1         Code  Gb  ABImemcpy.o [9]
__iar_Strchr                 0x361d         Code  Gb  strchr.o [9]
__iar_copy_init3             0x3e6d   0x30  Code  Gb  copy_init3.o [9]
__iar_d2uiz                  0x3815         Code  Gb  DblToI32.o [8]
__iar_data_init3             0x3da9   0x28  Code  Gb  data_init.o [9]
__iar_frexp                  0x36fb         Code  Gb  frexp.o [8]
__iar_frexp64                0x36ef         Code  Gb  frexp.o [8]
__iar_frexpl                 0x36fb         Code  Gb  frexp.o [8]
__iar_ldexp64                0x377d         Code  Gb  ldexp.o [8]
__iar_program_start          0x3d69         Code  Gb  cstartup_M.o [9]
__iar_scalbln64              0x377d         Code  Gb  ldexp.o [8]
__iar_scalbn64               0x377d         Code  Gb  ldexp.o [8]
__iar_zero_init3             0x3e31   0x3c  Code  Gb  zero_init3.o [9]
__low_level_init             0x3da3    0x4  Code  Gb  low_level_init.o [6]
__vector_table                  0x0   0xc0  Data  Gb  startup_mspm0g351x_iar.o [5]
_call_main                   0x3d91         Code  Gb  cmain.o [9]
_exit                        0x3dd9         Code  Gb  cexit.o [9]
abort                        0x3d45    0xa  Code  Gb  abort.o [6]
bias                    0x2020'020c    0xc  Data  Gb  TSP_MPU6050.o [3]
delay                   0x2020'021c    0x4  Data  Lc  tsp_isr.o [1]
delay_1ms                    0x120f    0xc  Code  Gb  tsp_isr.o [1]
dt                      0x2020'0004    0x4  Data  Gb  empty_mspm0g3519.o [4]
exit                         0x3dd1    0x8  Code  Gb  exit.o [6]
flag_20_ms              0x2020'0000    0x1  Data  Gb  empty_mspm0g3519.o [4]
frexp                        0x36ef         Code  Gb  frexp.o [8]
frexpl                       0x36ef         Code  Gb  frexp.o [8]
gK230ClockConfig              0x102    0x2  Data  Lc  ti_msp_dl_config.o [2]
gK230Config                   0x104    0xc  Data  Lc  ti_msp_dl_config.o [2]
gLCDBackup              0x2020'01a0   0x28  Data  Gb  ti_msp_dl_config.o [2]
gLCD_clockConfig              0x11c    0x2  Data  Lc  ti_msp_dl_config.o [2]
gLCD_config                   0x110    0xc  Data  Lc  ti_msp_dl_config.o [2]
gMPU6050ClockConfig           0x100    0x2  Data  Lc  ti_msp_dl_config.o [2]
gMotorBackup            0x2020'0044   0xbc  Data  Gb  ti_msp_dl_config.o [2]
gMotorClockConfig              0xf4    0x4  Data  Lc  ti_msp_dl_config.o [2]
gMotorConfig                   0xf8    0x8  Data  Lc  ti_msp_dl_config.o [2]
gSYSPLLConfig                  0xc0   0x28  Data  Lc  ti_msp_dl_config.o [2]
gServoBackup            0x2020'0100   0xa0  Data  Gb  ti_msp_dl_config.o [2]
gServoClockConfig              0xe8    0x4  Data  Lc  ti_msp_dl_config.o [2]
gServoConfig                   0xec    0x8  Data  Lc  ti_msp_dl_config.o [2]
get_systick_counter          0x1245    0x6  Code  Gb  tsp_isr.o [1]
gz                      0x2020'0002    0x2  Data  Gb  empty_mspm0g3519.o [4]
ldexp                        0x377d         Code  Gb  ldexp.o [8]
ldexpl                       0x377d         Code  Gb  ldexp.o [8]
localeconv                   0x3c65    0x4  Code  Gb  xlocale_c.o [6]
main                          0x7bd  0x19e  Code  Gb  empty_mspm0g3519.o [4]
memchr                       0x3689         Code  Gb  memchr.o [9]
mpu6050_i2c_disable          0x1c79   0x3a  Code  Gb  tsp_i2c.o [3]
mpu6050_i2c_enable           0x1cb3   0x4c  Code  Gb  tsp_i2c.o [3]
mpu6050_i2c_sda_unlock       0x1cff   0x46  Code  Gb  tsp_i2c.o [3]
mspm0_get_clock_ms           0x124b   0x12  Code  Gb  tsp_isr.o [1]
mspm0_i2c_read               0x1dd1   0xce  Code  Gb  tsp_i2c.o [3]
mspm0_i2c_write              0x1d45   0x84  Code  Gb  tsp_i2c.o [3]
normalize_angle               0x797   0x24  Code  Lc  empty_mspm0g3519.o [4]
scalbln                      0x377d         Code  Gb  ldexp.o [8]
scalblnl                     0x377d         Code  Gb  ldexp.o [8]
scalbn                       0x377d         Code  Gb  ldexp.o [8]
scalbnl                      0x377d         Code  Gb  ldexp.o [8]
scale                        0x2ded   0x44  Code  Lc  xprintffull_nomb.o [6]
sec_hand                0x2020'0224    0x4  Data  Lc  xfail_s.o [6]
sprintf                      0x14a1   0x40  Code  Gb  sprintf.o [6]
strchr                       0x361d         Code  Gb  strchr.o [9]
strlen                       0x3679         Code  Gb  strlen.o [9]
sys_tick_counter        0x2020'0218    0x4  Data  Gb  tsp_isr.o [1]
tft_ascii                     0x120  0x5f0  Data  Gb  TSP_TFT18.o [3]
tsp_spi_write_byte            0xc95   0x14  Code  Lc  TSP_TFT18.o [3]
tsp_tft18_clear               0xd2b   0x36  Code  Gb  TSP_TFT18.o [3]
tsp_tft18_init                0xb8f  0x106  Code  Gb  TSP_TFT18.o [3]
tsp_tft18_set_region          0xcf5   0x36  Code  Gb  TSP_TFT18.o [3]
tsp_tft18_show_char           0xd61   0x5a  Code  Gb  TSP_TFT18.o [3]
tsp_tft18_show_char_color
                              0xdbb   0x72  Code  Gb  TSP_TFT18.o [3]
tsp_tft18_show_int16          0xeb1   0x9c  Code  Gb  TSP_TFT18.o [3]
tsp_tft18_show_str            0xe49   0x28  Code  Gb  TSP_TFT18.o [3]
tsp_tft18_show_str_color
                              0xe71   0x40  Code  Gb  TSP_TFT18.o [3]
tsp_tft18_show_uint16         0xf4d   0x7a  Code  Gb  TSP_TFT18.o [3]
tsp_tft18_write_2byte         0xcd5   0x20  Code  Gb  TSP_TFT18.o [3]
tsp_tft18_write_byte          0xcbf   0x16  Code  Gb  TSP_TFT18.o [3]
tsp_tft18_write_cmd           0xca9   0x16  Code  Gb  TSP_TFT18.o [3]
z                       0x2020'0220    0x4  Data  Gb  TSP_MPU6050.o [3]


[1] = D:\Study_resources\电赛\main\main\TSP3519\TSP3519\iar\Debug\Obj\NUEDU2025_11847588325976546582.dir
[2] = D:\Study_resources\电赛\main\main\TSP3519\TSP3519\iar\Debug\Obj\SysConfig Generated Files_5435349133262493662.dir
[3] = D:\Study_resources\电赛\main\main\TSP3519\TSP3519\iar\Debug\Obj\TSP3519_9401757970942732151.dir
[4] = D:\Study_resources\电赛\main\main\TSP3519\TSP3519\iar\Debug\Obj\empty_mspm0g3519_13168490636323535303.dir
[5] = D:\Study_resources\电赛\main\main\TSP3519\TSP3519\iar\Debug\Obj\iar_102420246905159791.dir
[6] = dl6M_tlf.a
[7] = driverlib.a
[8] = m6M_tl.a
[9] = rt6M_tl.a
[10] = shb_l.a

  14'043 bytes of readonly  code memory
   2'021 bytes of readonly  data memory
   1'064 bytes of readwrite data memory

Errors: none
Warnings: none
